target datalayout = "e-m:e-p270:32:32-p271:32:32-p272:64:64-i64:64-i128:128-f80:128-n8:16:32:64-S128"
target triple = "x86_64-pc-linux-gnu"

%struct.prov_cipher_ctx_st = type { [16 x i8], [16 x i8], [16 x i8], ptr, %union.anon, i32, i64, i64, i64, i64, i32, i8, i32, ptr, i32, i64, i32, i64, i32, ptr, ptr, ptr }
%union.anon = type { ptr }
%struct.prov_aes_xts_ctx_st = type { %struct.prov_cipher_ctx_st, %union.anon.0, %union.anon.0, %struct.xts128_context, ptr, %union.anon.1 }
%union.anon.0 = type { double, [240 x i8] }
%struct.xts128_context = type { ptr, ptr, ptr, ptr }
%union.anon.1 = type { i32 }

; Function Attrs: nounwind uwtable
define internal void @cipher_hw_aes_xts_copyctx(ptr noundef %0, ptr noundef %1) #0 {
  %3 = alloca ptr, align 8
  %4 = alloca ptr, align 8
  %5 = alloca ptr, align 8
  %6 = alloca ptr, align 8
  store ptr %0, ptr %3, align 8, !tbaa !9
  store ptr %1, ptr %4, align 8, !tbaa !9
  call void @llvm.lifetime.start.p0(i64 8, ptr %5) #4
  %7 = load ptr, ptr %4, align 8, !tbaa !9
  store ptr %7, ptr %5, align 8, !tbaa !14
  call void @llvm.lifetime.start.p0(i64 8, ptr %6) #4
  %8 = load ptr, ptr %3, align 8, !tbaa !9
  store ptr %8, ptr %6, align 8, !tbaa !14
  %9 = load ptr, ptr %6, align 8, !tbaa !14
  %10 = load ptr, ptr %5, align 8, !tbaa !14
  call void @llvm.memcpy.p0.p0.i64(ptr align 8 %9, ptr align 8 %10, i64 736, i1 false), !tbaa.struct !26
  %11 = load ptr, ptr %6, align 8, !tbaa !14
  %12 = getelementptr inbounds nuw %struct.prov_aes_xts_ctx_st, ptr %11, i32 0, i32 1
  %13 = load ptr, ptr %6, align 8, !tbaa !14
  %14 = getelementptr inbounds nuw %struct.prov_aes_xts_ctx_st, ptr %13, i32 0, i32 3
  %15 = getelementptr inbounds nuw %struct.xts128_context, ptr %14, i32 0, i32 0
  store ptr %12, ptr %15, align 8, !tbaa !23
  %16 = load ptr, ptr %6, align 8, !tbaa !14
  %17 = getelementptr inbounds nuw %struct.prov_aes_xts_ctx_st, ptr %16, i32 0, i32 2
  %18 = load ptr, ptr %6, align 8, !tbaa !14
  %19 = getelementptr inbounds nuw %struct.prov_aes_xts_ctx_st, ptr %18, i32 0, i32 3
  %20 = getelementptr inbounds nuw %struct.xts128_context, ptr %19, i32 0, i32 1
  store ptr %17, ptr %20, align 8, !tbaa !24
  call void @llvm.lifetime.end.p0(i64 8, ptr %6) #4
  call void @llvm.lifetime.end.p0(i64 8, ptr %5) #4
  ret void
}