; Function Attrs: mustprogress nofree norecurse nosync nounwind willreturn memory(argmem: readwrite) uwtable
define internal void @cipher_hw_aes_xts_copyctx(ptr noundef initializes((0, 736)) %0, ptr noundef readonly captures(none) %1) #2 {
  tail call void @llvm.memcpy.p0.p0.i64(ptr noundef nonnull align 8 dereferenceable(736) %0, ptr noundef nonnull align 8 dereferenceable(736) %1, i64 736, i1 false), !tbaa.struct !20
  %3 = getelementptr inbounds nuw i8, ptr %0, i64 192
  %4 = getelementptr inbounds nuw i8, ptr %0, i64 688
  store ptr %3, ptr %4, align 8, !tbaa !17
  %5 = getelementptr inbounds nuw i8, ptr %0, i64 440
  %6 = getelementptr inbounds nuw i8, ptr %0, i64 696
  store ptr %5, ptr %6, align 8, !tbaa !18
  ret void
}